; Function Attrs: mustprogress nounwind uwtable
define dso_local noundef ptr @_ZNK5clang8comments13CommandTraits24getRegisteredCommandInfoEN4llvm9StringRefE(ptr noundef nonnull align 8 dereferenceable(64) %0, ptr nocapture readonly %1, i64 %2) local_unnamed_addr #1 align 2 {
  %.fr = freeze i64 %2
  %4 = getelementptr inbounds nuw i8, ptr %0, i64 16
  %5 = tail call noundef i64 @_ZNK4llvm15SmallVectorBaseIjE4sizeEv(ptr noundef nonnull align 8 dereferenceable(16) %4) #13
  %6 = trunc i64 %5 to i32
  %.not15 = icmp eq i32 %6, 0
  br i1 %.not15, label %_ZN4llvmeqENS_9StringRefES0_.exit.thread, label %.lr.ph

.lr.ph:                                           ; preds = %3
  %7 = load ptr, ptr %4, align 8
  %.not.i910 = icmp eq i64 %.fr, 0
  br i1 %.not.i910, label %.lr.ph.split.us, label %.lr.ph.split.preheader

.lr.ph.split.preheader:                           ; preds = %.lr.ph
  %8 = and i64 %5, 4294967295
  br label %.lr.ph.split

.lr.ph.split.us:                                  ; preds = %.lr.ph, %_ZN4llvmeqENS_9StringRefES0_.exit.thread13.us
  %.0816.us = phi i32 [ %13, %_ZN4llvmeqENS_9StringRefES0_.exit.thread13.us ], [ 0, %.lr.ph ]
  %9 = zext i32 %.0816.us to i64
  %10 = getelementptr inbounds ptr, ptr %7, i64 %9
  %11 = load ptr, ptr %10, align 8
  %12 = load ptr, ptr %11, align 8
  %.not.i.us = icmp eq ptr %12, null
  br i1 %.not.i.us, label %_ZN4llvmeqENS_9StringRefES0_.exit.thread, label %_ZN4llvm9StringRefC2EPKc.exit.us

_ZN4llvm9StringRefC2EPKc.exit.us:                 ; preds = %.lr.ph.split.us
  %char0 = load i8, ptr %12, align 1
  %.not.i9.us = icmp eq i8 %char0, 0
  br i1 %.not.i9.us, label %_ZN4llvmeqENS_9StringRefES0_.exit.thread, label %_ZN4llvmeqENS_9StringRefES0_.exit.thread13.us

_ZN4llvmeqENS_9StringRefES0_.exit.thread13.us:    ; preds = %_ZN4llvm9StringRefC2EPKc.exit.us
  %13 = add nuw i32 %.0816.us, 1
  %.not.us = icmp eq i32 %13, %6
  br i1 %.not.us, label %_ZN4llvmeqENS_9StringRefES0_.exit.thread, label %.lr.ph.split.us, !llvm.loop !6

.lr.ph.split:                                     ; preds = %.lr.ph.split.preheader, %_ZN4llvmeqENS_9StringRefES0_.exit.thread13
  %indvars.iv = phi i64 [ 0, %.lr.ph.split.preheader ], [ %indvars.iv.next, %_ZN4llvmeqENS_9StringRefES0_.exit.thread13 ]
  %14 = getelementptr inbounds ptr, ptr %7, i64 %indvars.iv
  %15 = load ptr, ptr %14, align 8
  %16 = load ptr, ptr %15, align 8
  %.not.i = icmp eq ptr %16, null
  br i1 %.not.i, label %_ZN4llvmeqENS_9StringRefES0_.exit.thread13, label %_ZN4llvm9StringRefC2EPKc.exit

_ZN4llvm9StringRefC2EPKc.exit:                    ; preds = %.lr.ph.split
  %17 = tail call noundef i64 @strlen(ptr noundef nonnull dereferenceable(1) %16) #13
  %.not.i9 = icmp eq i64 %17, %.fr
  br i1 %.not.i9, label %_ZN4llvmeqENS_9StringRefES0_.exit, label %_ZN4llvmeqENS_9StringRefES0_.exit.thread13

_ZN4llvmeqENS_9StringRefES0_.exit:                ; preds = %_ZN4llvm9StringRefC2EPKc.exit
  %bcmp.i = tail call i32 @bcmp(ptr nonnull %16, ptr %1, i64 %.fr)
  %18 = icmp eq i32 %bcmp.i, 0
  br i1 %18, label %_ZN4llvmeqENS_9StringRefES0_.exit.thread, label %_ZN4llvmeqENS_9StringRefES0_.exit.thread13

_ZN4llvmeqENS_9StringRefES0_.exit.thread13:       ; preds = %.lr.ph.split, %_ZN4llvm9StringRefC2EPKc.exit, %_ZN4llvmeqENS_9StringRefES0_.exit
  %indvars.iv.next = add nuw nsw i64 %indvars.iv, 1
  %.not = icmp eq i64 %indvars.iv.next, %8
  br i1 %.not, label %_ZN4llvmeqENS_9StringRefES0_.exit.thread, label %.lr.ph.split, !llvm.loop !6

_ZN4llvmeqENS_9StringRefES0_.exit.thread:         ; preds = %_ZN4llvmeqENS_9StringRefES0_.exit.thread13, %_ZN4llvmeqENS_9StringRefES0_.exit, %_ZN4llvm9StringRefC2EPKc.exit.us, %_ZN4llvmeqENS_9StringRefES0_.exit.thread13.us, %.lr.ph.split.us, %3
  %.0 = phi ptr [ null, %3 ], [ %11, %_ZN4llvm9StringRefC2EPKc.exit.us ], [ null, %_ZN4llvmeqENS_9StringRefES0_.exit.thread13.us ], [ %11, %.lr.ph.split.us ], [ null, %_ZN4llvmeqENS_9StringRefES0_.exit.thread13 ], [ %15, %_ZN4llvmeqENS_9StringRefES0_.exit ]
  ret ptr %.0
}